; Function Attrs: mustprogress nofree norecurse nosync nounwind willreturn memory(argmem: read) uwtable
define range(i64 0, 4294967296) i64 @lv_cache_get_free_size(ptr nocapture noundef readonly %0, ptr nocapture noundef readnone %1) local_unnamed_addr #4 {
  %3 = getelementptr inbounds nuw i8, ptr %0, i64 12
  %4 = load i32, ptr %3, align 4, !tbaa !13
  %5 = getelementptr inbounds nuw i8, ptr %0, i64 16
  %6 = load i32, ptr %5, align 8, !tbaa !14
  %7 = sub i32 %4, %6
  %8 = zext i32 %7 to i64
  ret i64 %8
}